target datalayout = "e-m:e-p270:32:32-p271:32:32-p272:64:64-i64:64-i128:128-f80:128-n8:16:32:64-S128"
target triple = "x86_64-pc-linux-gnu"

%struct.EVCParamSets = type { [16 x ptr], [64 x ptr] }

; Function Attrs: nounwind uwtable
define void @ff_evc_ps_free(ptr noundef %0) #0 {
  %2 = alloca ptr, align 8
  %3 = alloca i32, align 4
  %4 = alloca i32, align 4
  store ptr %0, ptr %2, align 8, !tbaa !9
  call void @llvm.lifetime.start.p0(i64 4, ptr %3) #6
  store i32 0, ptr %3, align 4, !tbaa !11
  br label %5

5:                                                ; preds = %15, %1
  %6 = load i32, ptr %3, align 4, !tbaa !11
  %7 = icmp slt i32 %6, 16
  br i1 %7, label %9, label %8

8:                                                ; preds = %5
  call void @llvm.lifetime.end.p0(i64 4, ptr %3) #6
  br label %18

9:                                                ; preds = %5
  %10 = load ptr, ptr %2, align 8, !tbaa !9
  %11 = getelementptr inbounds nuw %struct.EVCParamSets, ptr %10, i32 0, i32 0
  %12 = load i32, ptr %3, align 4, !tbaa !11
  %13 = sext i32 %12 to i64
  %14 = getelementptr inbounds [16 x ptr], ptr %11, i64 0, i64 %13
  call void @av_freep(ptr noundef %14)
  br label %15

15:                                               ; preds = %9
  %16 = load i32, ptr %3, align 4, !tbaa !11
  %17 = add nsw i32 %16, 1
  store i32 %17, ptr %3, align 4, !tbaa !11
  br label %5, !llvm.loop !150

18:                                               ; preds = %8
  call void @llvm.lifetime.start.p0(i64 4, ptr %4) #6
  store i32 0, ptr %4, align 4, !tbaa !11
  br label %19

19:                                               ; preds = %29, %18
  %20 = load i32, ptr %4, align 4, !tbaa !11
  %21 = icmp slt i32 %20, 64
  br i1 %21, label %23, label %22

22:                                               ; preds = %19
  call void @llvm.lifetime.end.p0(i64 4, ptr %4) #6
  br label %32

23:                                               ; preds = %19
  %24 = load ptr, ptr %2, align 8, !tbaa !9
  %25 = getelementptr inbounds nuw %struct.EVCParamSets, ptr %24, i32 0, i32 1
  %26 = load i32, ptr %4, align 4, !tbaa !11
  %27 = sext i32 %26 to i64
  %28 = getelementptr inbounds [64 x ptr], ptr %25, i64 0, i64 %27
  call void @av_freep(ptr noundef %28)
  br label %29

29:                                               ; preds = %23
  %30 = load i32, ptr %4, align 4, !tbaa !11
  %31 = add nsw i32 %30, 1
  store i32 %31, ptr %4, align 4, !tbaa !11
  br label %19, !llvm.loop !151

32:                                               ; preds = %22
  ret void
}