; Function Attrs: nounwind uwtable
define void @ff_evc_ps_free(ptr noundef %0) local_unnamed_addr #0 {
  br label %3

.preheader:                                       ; preds = %3
  %2 = getelementptr inbounds nuw i8, ptr %0, i64 128
  br label %6

3:                                                ; preds = %1, %3
  %indvars.iv = phi i64 [ 0, %1 ], [ %indvars.iv.next, %3 ]
  %4 = getelementptr inbounds nuw [16 x ptr], ptr %0, i64 0, i64 %indvars.iv
  tail call void @av_freep(ptr noundef %4) #5
  %indvars.iv.next = add nuw nsw i64 %indvars.iv, 1
  %exitcond.not = icmp eq i64 %indvars.iv.next, 16
  br i1 %exitcond.not, label %.preheader, label %3, !llvm.loop !143

5:                                                ; preds = %6
  ret void

6:                                                ; preds = %.preheader, %6
  %indvars.iv11 = phi i64 [ 0, %.preheader ], [ %indvars.iv.next12, %6 ]
  %7 = getelementptr inbounds nuw [64 x ptr], ptr %2, i64 0, i64 %indvars.iv11
  tail call void @av_freep(ptr noundef nonnull %7) #5
  %indvars.iv.next12 = add nuw nsw i64 %indvars.iv11, 1
  %exitcond14.not = icmp eq i64 %indvars.iv.next12, 64
  br i1 %exitcond14.not, label %5, label %6, !llvm.loop !144
}